; Function Attrs: mustprogress nounwind uwtable
define hidden void @_ZN12ZJNICritical5enterEP10JavaThread(ptr noundef %0) local_unnamed_addr #1 align 2 {
  %2 = getelementptr inbounds i8, ptr %0, i64 1308
  %3 = load i32, ptr %2, align 4
  %4 = icmp sgt i32 %3, 0
  br i1 %4, label %6, label %5

5:                                                ; preds = %1
  tail call void @_ZN12ZJNICritical11enter_innerEP10JavaThread(ptr noundef nonnull %0)
  %.pre = load i32, ptr %2, align 4
  br label %6

6:                                                ; preds = %5, %1
  %7 = phi i32 [ %.pre, %5 ], [ %3, %1 ]
  %8 = add nsw i32 %7, 1
  store i32 %8, ptr %2, align 4
  ret void
}